target datalayout = "e-m:e-p270:32:32-p271:32:32-p272:64:64-i64:64-i128:128-f80:128-n8:16:32:64-S128"
target triple = "x86_64-pc-linux-gnu"

%class.btVector3 = type { [4 x float] }
%class.btAlignedObjectArray.0 = type <{ [4 x i8], i32, i32, [4 x i8], ptr, i8, [7 x i8] }>
%class.btAlignedObjectArray.2 = type <{ [4 x i8], i32, i32, [4 x i8], ptr, i8, [7 x i8] }>
%class.btSequentialImpulseConstraintSolver = type { %class.btConstraintSolver, %class.btAlignedObjectArray.4, %class.btAlignedObjectArray.6, %class.btAlignedObjectArray.6, %class.btAlignedObjectArray.6, %class.btAlignedObjectArray.6, %class.btAlignedObjectArray.0, %class.btAlignedObjectArray.0, %class.btAlignedObjectArray.0, %class.btAlignedObjectArray.8, i32, i32, %class.btAlignedObjectArray.0, ptr, ptr, ptr, i32, float, i64, %struct.btSolverAnalyticsData }
%class.btConstraintSolver = type { ptr }
%class.btAlignedObjectArray.4 = type <{ [4 x i8], i32, i32, [4 x i8], ptr, i8, [7 x i8] }>
%class.btAlignedObjectArray.6 = type <{ [4 x i8], i32, i32, [4 x i8], ptr, i8, [7 x i8] }>
%class.btAlignedObjectArray.8 = type <{ [4 x i8], i32, i32, [4 x i8], ptr, i8, [7 x i8] }>
%struct.btSolverAnalyticsData = type { i32, i32, i32, i32, i32, double }
%struct.btContactSolverInfoData = type { float, float, float, float, float, i32, float, float, float, float, float, float, float, float, float, float, i32, float, float, float, float, float, i32, i32, i32, float, float, float, float, i8, i8, i32, i32 }
%class.btDeformableMultiBodyConstraintSolver = type { %class.btMultiBodyConstraintSolver.base, ptr }
%class.btMultiBodyConstraintSolver.base = type <{ %class.btSequentialImpulseConstraintSolver, %class.btAlignedObjectArray.10, %class.btAlignedObjectArray.10, %class.btAlignedObjectArray.10, %class.btAlignedObjectArray.10, %class.btAlignedObjectArray.10, %struct.btMultiBodyJacobianData, ptr, i32 }>
%class.btAlignedObjectArray.10 = type <{ [4 x i8], i32, i32, [4 x i8], ptr, i8, [7 x i8] }>
%struct.btMultiBodyJacobianData = type <{ %class.btAlignedObjectArray.12, %class.btAlignedObjectArray.12, %class.btAlignedObjectArray.12, %class.btAlignedObjectArray.12, %class.btAlignedObjectArray.2, %class.btAlignedObjectArray.14, ptr, i32, [4 x i8] }>
%class.btAlignedObjectArray.12 = type <{ [4 x i8], i32, i32, [4 x i8], ptr, i8, [7 x i8] }>
%class.btAlignedObjectArray.14 = type <{ [4 x i8], i32, i32, [4 x i8], ptr, i8, [7 x i8] }>
%class.btMatrix3x3 = type { [3 x %class.btVector3] }
%struct.btSolverBody = type { %class.btTransform, %class.btVector3, %class.btVector3, %class.btVector3, %class.btVector3, %class.btVector3, %class.btVector3, %class.btVector3, %class.btVector3, %class.btVector3, %class.btVector3, %class.btVector3, ptr }
%class.btTransform = type { %class.btMatrix3x3, %class.btVector3 }
%class.btCollisionObject = type <{ ptr, %class.btTransform, %class.btTransform, %class.btVector3, %class.btVector3, %class.btVector3, i32, float, ptr, ptr, ptr, ptr, i32, i32, i32, i32, i32, float, float, float, float, float, float, float, i32, [4 x i8], ptr, i32, i32, i32, float, float, float, i32, [4 x i8], %class.btAlignedObjectArray.18, i32, %class.btVector3, [4 x i8] }>
%class.btAlignedObjectArray.18 = type <{ [4 x i8], i32, i32, [4 x i8], ptr, i8, [7 x i8] }>
%class.btRigidBody = type { %class.btCollisionObject.base, %class.btMatrix3x3, %class.btVector3, %class.btVector3, float, %class.btVector3, %class.btVector3, %class.btVector3, %class.btVector3, %class.btVector3, %class.btVector3, float, float, i8, float, float, float, float, float, float, ptr, %class.btAlignedObjectArray.20, i32, i32, %class.btVector3, %class.btVector3, %class.btVector3, %class.btVector3, %class.btVector3, %class.btVector3, i32, i32 }
%class.btCollisionObject.base = type <{ ptr, %class.btTransform, %class.btTransform, %class.btVector3, %class.btVector3, %class.btVector3, i32, float, ptr, ptr, ptr, ptr, i32, i32, i32, i32, i32, float, float, float, float, float, float, float, i32, [4 x i8], ptr, i32, i32, i32, float, float, float, i32, [4 x i8], %class.btAlignedObjectArray.18, i32, %class.btVector3 }>
%class.btAlignedObjectArray.20 = type <{ [4 x i8], i32, i32, [4 x i8], ptr, i8, [7 x i8] }>

; Function Attrs: inlinehint mustprogress nounwind uwtable
define linkonce_odr dso_local void @_ZN9btVector3C2ERKfS1_S1_(ptr noundef nonnull align 4 dereferenceable(16) %0, ptr noundef nonnull align 4 dereferenceable(4) %1, ptr noundef nonnull align 4 dereferenceable(4) %2, ptr noundef nonnull align 4 dereferenceable(4) %3) unnamed_addr #6 comdat align 2 {
  %5 = alloca ptr, align 8
  %6 = alloca ptr, align 8
  %7 = alloca ptr, align 8
  %8 = alloca ptr, align 8
  store ptr %0, ptr %5, align 8, !tbaa !14
  store ptr %1, ptr %6, align 8, !tbaa !16
  store ptr %2, ptr %7, align 8, !tbaa !16
  store ptr %3, ptr %8, align 8, !tbaa !16
  %9 = load ptr, ptr %5, align 8
  %10 = load ptr, ptr %6, align 8, !tbaa !16
  %11 = load float, ptr %10, align 4, !tbaa !12
  %12 = getelementptr inbounds nuw %class.btVector3, ptr %9, i32 0, i32 0
  %13 = getelementptr inbounds [4 x float], ptr %12, i64 0, i64 0
  store float %11, ptr %13, align 4, !tbaa !12
  %14 = load ptr, ptr %7, align 8, !tbaa !16
  %15 = load float, ptr %14, align 4, !tbaa !12
  %16 = getelementptr inbounds nuw %class.btVector3, ptr %9, i32 0, i32 0
  %17 = getelementptr inbounds [4 x float], ptr %16, i64 0, i64 1
  store float %15, ptr %17, align 4, !tbaa !12
  %18 = load ptr, ptr %8, align 8, !tbaa !16
  %19 = load float, ptr %18, align 4, !tbaa !12
  %20 = getelementptr inbounds nuw %class.btVector3, ptr %9, i32 0, i32 0
  %21 = getelementptr inbounds [4 x float], ptr %20, i64 0, i64 2
  store float %19, ptr %21, align 4, !tbaa !12
  %22 = getelementptr inbounds nuw %class.btVector3, ptr %9, i32 0, i32 0
  %23 = getelementptr inbounds [4 x float], ptr %22, i64 0, i64 3
  store float 0.000000e+00, ptr %23, align 4, !tbaa !12
  ret void
}

; Function Attrs: mustprogress nounwind uwtable
define linkonce_odr dso_local noundef i32 @_ZNK17btCollisionObject15getInternalTypeEv(ptr noundef nonnull align 8 dereferenceable(372) %0) #1 comdat align 2 {
  %2 = alloca ptr, align 8
  store ptr %0, ptr %2, align 8, !tbaa !106
  %3 = load ptr, ptr %2, align 8
  %4 = getelementptr inbounds nuw %class.btCollisionObject, ptr %3, i32 0, i32 24
  %5 = load i32, ptr %4, align 8, !tbaa !230
  ret i32 %5
}

; Function Attrs: mustprogress nounwind uwtable
define linkonce_odr dso_local noundef nonnull align 4 dereferenceable(16) ptr @_ZNK11btRigidBody18getAngularVelocityEv(ptr noundef nonnull align 8 dereferenceable(744) %0) #1 comdat align 2 {
  %2 = alloca ptr, align 8
  store ptr %0, ptr %2, align 8, !tbaa !126
  %3 = load ptr, ptr %2, align 8
  %4 = getelementptr inbounds nuw %class.btRigidBody, ptr %3, i32 0, i32 3
  ret ptr %4
}

; Function Attrs: inlinehint mustprogress uwtable
define linkonce_odr dso_local { <2 x float>, <2 x float> } @_ZmiRK9btVector3S1_(ptr noundef nonnull align 4 dereferenceable(16) %0, ptr noundef nonnull align 4 dereferenceable(16) %1) #8 comdat {
  %3 = alloca %class.btVector3, align 4
  %4 = alloca ptr, align 8
  %5 = alloca ptr, align 8
  %6 = alloca float, align 4
  %7 = alloca float, align 4
  %8 = alloca float, align 4
  store ptr %0, ptr %4, align 8, !tbaa !14
  store ptr %1, ptr %5, align 8, !tbaa !14
  call void @llvm.lifetime.start.p0(i64 4, ptr %6) #4
  %9 = load ptr, ptr %4, align 8, !tbaa !14
  %10 = getelementptr inbounds nuw %class.btVector3, ptr %9, i32 0, i32 0
  %11 = getelementptr inbounds [4 x float], ptr %10, i64 0, i64 0
  %12 = load float, ptr %11, align 4, !tbaa !12
  %13 = load ptr, ptr %5, align 8, !tbaa !14
  %14 = getelementptr inbounds nuw %class.btVector3, ptr %13, i32 0, i32 0
  %15 = getelementptr inbounds [4 x float], ptr %14, i64 0, i64 0
  %16 = load float, ptr %15, align 4, !tbaa !12
  %17 = fsub float %12, %16
  store float %17, ptr %6, align 4, !tbaa !12
  call void @llvm.lifetime.start.p0(i64 4, ptr %7) #4
  %18 = load ptr, ptr %4, align 8, !tbaa !14
  %19 = getelementptr inbounds nuw %class.btVector3, ptr %18, i32 0, i32 0
  %20 = getelementptr inbounds [4 x float], ptr %19, i64 0, i64 1
  %21 = load float, ptr %20, align 4, !tbaa !12
  %22 = load ptr, ptr %5, align 8, !tbaa !14
  %23 = getelementptr inbounds nuw %class.btVector3, ptr %22, i32 0, i32 0
  %24 = getelementptr inbounds [4 x float], ptr %23, i64 0, i64 1
  %25 = load float, ptr %24, align 4, !tbaa !12
  %26 = fsub float %21, %25
  store float %26, ptr %7, align 4, !tbaa !12
  call void @llvm.lifetime.start.p0(i64 4, ptr %8) #4
  %27 = load ptr, ptr %4, align 8, !tbaa !14
  %28 = getelementptr inbounds nuw %class.btVector3, ptr %27, i32 0, i32 0
  %29 = getelementptr inbounds [4 x float], ptr %28, i64 0, i64 2
  %30 = load float, ptr %29, align 4, !tbaa !12
  %31 = load ptr, ptr %5, align 8, !tbaa !14
  %32 = getelementptr inbounds nuw %class.btVector3, ptr %31, i32 0, i32 0
  %33 = getelementptr inbounds [4 x float], ptr %32, i64 0, i64 2
  %34 = load float, ptr %33, align 4, !tbaa !12
  %35 = fsub float %30, %34
  store float %35, ptr %8, align 4, !tbaa !12
  call void @_ZN9btVector3C2ERKfS1_S1_(ptr noundef nonnull align 4 dereferenceable(16) %3, ptr noundef nonnull align 4 dereferenceable(4) %6, ptr noundef nonnull align 4 dereferenceable(4) %7, ptr noundef nonnull align 4 dereferenceable(4) %8)
  call void @llvm.lifetime.end.p0(i64 4, ptr %8) #4
  call void @llvm.lifetime.end.p0(i64 4, ptr %7) #4
  call void @llvm.lifetime.end.p0(i64 4, ptr %6) #4
  %36 = getelementptr inbounds nuw %class.btVector3, ptr %3, i32 0, i32 0
  %37 = load { <2 x float>, <2 x float> }, ptr %36, align 4
  ret { <2 x float>, <2 x float> } %37
}

; Function Attrs: mustprogress nounwind uwtable
define linkonce_odr dso_local noundef nonnull align 4 dereferenceable(16) ptr @_ZNK11btRigidBody17getLinearVelocityEv(ptr noundef nonnull align 8 dereferenceable(744) %0) #1 comdat align 2 {
  %2 = alloca ptr, align 8
  store ptr %0, ptr %2, align 8, !tbaa !126
  %3 = load ptr, ptr %2, align 8
  %4 = getelementptr inbounds nuw %class.btRigidBody, ptr %3, i32 0, i32 2
  ret ptr %4
}

; Function Attrs: inlinehint mustprogress nounwind uwtable
define linkonce_odr dso_local noundef nonnull align 8 dereferenceable(248) ptr @_ZN20btAlignedObjectArrayI12btSolverBodyEixEi(ptr noundef nonnull align 8 dereferenceable(25) %0, i32 noundef %1) #6 comdat align 2 {
  %3 = alloca ptr, align 8
  %4 = alloca i32, align 4
  store ptr %0, ptr %3, align 8, !tbaa !153
  store i32 %1, ptr %4, align 4, !tbaa !9
  %5 = load ptr, ptr %3, align 8
  %6 = getelementptr inbounds nuw %class.btAlignedObjectArray.4, ptr %5, i32 0, i32 4
  %7 = load ptr, ptr %6, align 8, !tbaa !154
  %8 = load i32, ptr %4, align 4, !tbaa !9
  %9 = sext i32 %8 to i64
  %10 = getelementptr inbounds %struct.btSolverBody, ptr %7, i64 %9
  ret ptr %10
}

; Function Attrs: mustprogress nounwind uwtable
define linkonce_odr dso_local noundef float @_ZNK11btRigidBody10getInvMassEv(ptr noundef nonnull align 8 dereferenceable(744) %0) #1 comdat align 2 {
  %2 = alloca ptr, align 8
  store ptr %0, ptr %2, align 8, !tbaa !126
  %3 = load ptr, ptr %2, align 8
  %4 = getelementptr inbounds nuw %class.btRigidBody, ptr %3, i32 0, i32 4
  %5 = load float, ptr %4, align 4, !tbaa !148
  ret float %5
}

; Function Attrs: mustprogress uwtable
define linkonce_odr dso_local noundef ptr @_ZN11btRigidBody6upcastEP17btCollisionObject(ptr noundef %0) #7 comdat align 2 {
  %2 = alloca ptr, align 8
  %3 = alloca ptr, align 8
  store ptr %0, ptr %3, align 8, !tbaa !106
  %4 = load ptr, ptr %3, align 8, !tbaa !106
  %5 = call noundef i32 @_ZNK17btCollisionObject15getInternalTypeEv(ptr noundef nonnull align 8 dereferenceable(372) %4)
  %6 = and i32 %5, 2
  %7 = icmp ne i32 %6, 0
  br i1 %7, label %8, label %10

8:                                                ; preds = %1
  %9 = load ptr, ptr %3, align 8, !tbaa !106
  store ptr %9, ptr %2, align 8
  br label %11

10:                                               ; preds = %1
  store ptr null, ptr %2, align 8
  br label %11

11:                                               ; preds = %10, %8
  %12 = load ptr, ptr %2, align 8
  ret ptr %12
}

; Function Attrs: mustprogress uwtable
define dso_local void @_ZN37btDeformableMultiBodyConstraintSolver17writeToSolverBodyEPP17btCollisionObjectiRK19btContactSolverInfo(ptr noundef nonnull align 8 dereferenceable(800) %0, ptr noundef %1, i32 noundef %2, ptr noundef nonnull align 4 dereferenceable(128) %3) #9 align 2 {
  %5 = alloca ptr, align 8
  %6 = alloca ptr, align 8
  %7 = alloca i32, align 4
  %8 = alloca ptr, align 8
  %9 = alloca i32, align 4
  %10 = alloca i32, align 4
  %11 = alloca ptr, align 8
  %12 = alloca ptr, align 8
  %13 = alloca %class.btVector3, align 4
  %14 = alloca %class.btVector3, align 4
  store ptr %0, ptr %5, align 8, !tbaa !58
  store ptr %1, ptr %6, align 8, !tbaa !60
  store i32 %2, ptr %7, align 4, !tbaa !9
  store ptr %3, ptr %8, align 8, !tbaa !66
  %15 = load ptr, ptr %5, align 8
  %16 = getelementptr inbounds nuw %class.btDeformableMultiBodyConstraintSolver, ptr %15, i32 0, i32 1
  %17 = load ptr, ptr %16, align 8, !tbaa !87
  %18 = load ptr, ptr %17, align 8, !tbaa !51
  %19 = getelementptr inbounds ptr, ptr %18, i64 30
  %20 = load ptr, ptr %19, align 8
  %21 = call noundef zeroext i1 %20(ptr noundef nonnull align 8 dereferenceable(609) %17)
  br i1 %21, label %22, label %23

22:                                               ; preds = %4
  br label %83

23:                                               ; preds = %4
  call void @llvm.lifetime.start.p0(i64 4, ptr %9) #4
  store i32 0, ptr %9, align 4, !tbaa !9
  br label %24

24:                                               ; preds = %80, %23
  %25 = load i32, ptr %9, align 4, !tbaa !9
  %26 = load i32, ptr %7, align 4, !tbaa !9
  %27 = icmp slt i32 %25, %26
  br i1 %27, label %29, label %28

28:                                               ; preds = %24
  call void @llvm.lifetime.end.p0(i64 4, ptr %9) #4
  br label %83

29:                                               ; preds = %24
  call void @llvm.lifetime.start.p0(i64 4, ptr %10) #4
  %30 = load ptr, ptr %6, align 8, !tbaa !60
  %31 = load i32, ptr %9, align 4, !tbaa !9
  %32 = sext i32 %31 to i64
  %33 = getelementptr inbounds ptr, ptr %30, i64 %32
  %34 = load ptr, ptr %33, align 8, !tbaa !106
  %35 = load ptr, ptr %8, align 8, !tbaa !66
  %36 = getelementptr inbounds nuw %struct.btContactSolverInfoData, ptr %35, i32 0, i32 3
  %37 = load float, ptr %36, align 4, !tbaa !125
  %38 = call noundef i32 @_ZN35btSequentialImpulseConstraintSolver19getOrInitSolverBodyER17btCollisionObjectf(ptr noundef nonnull align 8 dereferenceable(408) %15, ptr noundef nonnull align 8 dereferenceable(372) %34, float noundef %37)
  store i32 %38, ptr %10, align 4, !tbaa !9
  call void @llvm.lifetime.start.p0(i64 8, ptr %11) #4
  %39 = load ptr, ptr %6, align 8, !tbaa !60
  %40 = load i32, ptr %9, align 4, !tbaa !9
  %41 = sext i32 %40 to i64
  %42 = getelementptr inbounds ptr, ptr %39, i64 %41
  %43 = load ptr, ptr %42, align 8, !tbaa !106
  %44 = call noundef ptr @_ZN11btRigidBody6upcastEP17btCollisionObject(ptr noundef %43)
  store ptr %44, ptr %11, align 8, !tbaa !126
  %45 = load ptr, ptr %11, align 8, !tbaa !126
  %46 = icmp ne ptr %45, null
  br i1 %46, label %47, label %79

47:                                               ; preds = %29
  %48 = load ptr, ptr %11, align 8, !tbaa !126
  %49 = call noundef float @_ZNK11btRigidBody10getInvMassEv(ptr noundef nonnull align 8 dereferenceable(744) %48)
  %50 = fcmp une float %49, 0.000000e+00
  br i1 %50, label %51, label %79

51:                                               ; preds = %47
  call void @llvm.lifetime.start.p0(i64 8, ptr %12) #4
  %52 = getelementptr inbounds nuw %class.btSequentialImpulseConstraintSolver, ptr %15, i32 0, i32 1
  %53 = load i32, ptr %10, align 4, !tbaa !9
  %54 = call noundef nonnull align 8 dereferenceable(248) ptr @_ZN20btAlignedObjectArrayI12btSolverBodyEixEi(ptr noundef nonnull align 8 dereferenceable(25) %52, i32 noundef %53)
  store ptr %54, ptr %12, align 8, !tbaa !128
  call void @llvm.lifetime.start.p0(i64 16, ptr %13) #4
  %55 = load ptr, ptr %11, align 8, !tbaa !126
  %56 = call noundef nonnull align 4 dereferenceable(16) ptr @_ZNK11btRigidBody17getLinearVelocityEv(ptr noundef nonnull align 8 dereferenceable(744) %55)
  %57 = load ptr, ptr %12, align 8, !tbaa !128
  %58 = getelementptr inbounds nuw %struct.btSolverBody, ptr %57, i32 0, i32 1
  %59 = call { <2 x float>, <2 x float> } @_ZmiRK9btVector3S1_(ptr noundef nonnull align 4 dereferenceable(16) %56, ptr noundef nonnull align 4 dereferenceable(16) %58)
  %60 = getelementptr inbounds nuw %class.btVector3, ptr %13, i32 0, i32 0
  %61 = getelementptr inbounds nuw { <2 x float>, <2 x float> }, ptr %60, i32 0, i32 0
  %62 = extractvalue { <2 x float>, <2 x float> } %59, 0
  store <2 x float> %62, ptr %61, align 4
  %63 = getelementptr inbounds nuw { <2 x float>, <2 x float> }, ptr %60, i32 0, i32 1
  %64 = extractvalue { <2 x float>, <2 x float> } %59, 1
  store <2 x float> %64, ptr %63, align 4
  %65 = load ptr, ptr %12, align 8, !tbaa !128
  %66 = getelementptr inbounds nuw %struct.btSolverBody, ptr %65, i32 0, i32 8
  call void @llvm.memcpy.p0.p0.i64(ptr align 8 %66, ptr align 4 %13, i64 16, i1 false), !tbaa.struct !135
  call void @llvm.lifetime.end.p0(i64 16, ptr %13) #4
  call void @llvm.lifetime.start.p0(i64 16, ptr %14) #4
  %67 = load ptr, ptr %11, align 8, !tbaa !126
  %68 = call noundef nonnull align 4 dereferenceable(16) ptr @_ZNK11btRigidBody18getAngularVelocityEv(ptr noundef nonnull align 8 dereferenceable(744) %67)
  %69 = load ptr, ptr %12, align 8, !tbaa !128
  %70 = getelementptr inbounds nuw %struct.btSolverBody, ptr %69, i32 0, i32 2
  %71 = call { <2 x float>, <2 x float> } @_ZmiRK9btVector3S1_(ptr noundef nonnull align 4 dereferenceable(16) %68, ptr noundef nonnull align 4 dereferenceable(16) %70)
  %72 = getelementptr inbounds nuw %class.btVector3, ptr %14, i32 0, i32 0
  %73 = getelementptr inbounds nuw { <2 x float>, <2 x float> }, ptr %72, i32 0, i32 0
  %74 = extractvalue { <2 x float>, <2 x float> } %71, 0
  store <2 x float> %74, ptr %73, align 4
  %75 = getelementptr inbounds nuw { <2 x float>, <2 x float> }, ptr %72, i32 0, i32 1
  %76 = extractvalue { <2 x float>, <2 x float> } %71, 1
  store <2 x float> %76, ptr %75, align 4
  %77 = load ptr, ptr %12, align 8, !tbaa !128
  %78 = getelementptr inbounds nuw %struct.btSolverBody, ptr %77, i32 0, i32 9
  call void @llvm.memcpy.p0.p0.i64(ptr align 8 %78, ptr align 4 %14, i64 16, i1 false), !tbaa.struct !135
  call void @llvm.lifetime.end.p0(i64 16, ptr %14) #4
  call void @llvm.lifetime.end.p0(i64 8, ptr %12) #4
  br label %79

79:                                               ; preds = %51, %47, %29
  call void @llvm.lifetime.end.p0(i64 8, ptr %11) #4
  call void @llvm.lifetime.end.p0(i64 4, ptr %10) #4
  br label %80

80:                                               ; preds = %79
  %81 = load i32, ptr %9, align 4, !tbaa !9
  %82 = add nsw i32 %81, 1
  store i32 %82, ptr %9, align 4, !tbaa !9
  br label %24, !llvm.loop !136

83:                                               ; preds = %22, %28
  ret void
}