; Function Attrs: mustprogress uwtable
define dso_local void @_ZN37btDeformableMultiBodyConstraintSolver17writeToSolverBodyEPP17btCollisionObjectiRK19btContactSolverInfo(ptr noundef nonnull align 8 dereferenceable(800) %0, ptr noundef readonly captures(none) %1, i32 noundef %2, ptr noundef nonnull readonly align 4 captures(none) dereferenceable(128) %3) local_unnamed_addr #7 align 2 {
  %5 = getelementptr inbounds nuw i8, ptr %0, i64 792
  %6 = load ptr, ptr %5, align 8, !tbaa !98
  %7 = load ptr, ptr %6, align 8, !tbaa !50
  %8 = getelementptr inbounds nuw i8, ptr %7, i64 240
  %9 = load ptr, ptr %8, align 8
  %10 = tail call noundef zeroext i1 %9(ptr noundef nonnull align 8 dereferenceable(609) %6)
  %11 = icmp slt i32 %2, 1
  %or.cond.not = or i1 %11, %10
  br i1 %or.cond.not, label %.loopexit, label %.lr.ph

.lr.ph:                                           ; preds = %4
  %12 = getelementptr inbounds nuw i8, ptr %3, i64 12
  %13 = getelementptr inbounds nuw i8, ptr %0, i64 24
  %wide.trip.count = zext nneg i32 %2 to i64
  br label %14

14:                                               ; preds = %.lr.ph, %63
  %indvars.iv = phi i64 [ 0, %.lr.ph ], [ %indvars.iv.next, %63 ]
  %15 = getelementptr inbounds nuw ptr, ptr %1, i64 %indvars.iv
  %16 = load ptr, ptr %15, align 8, !tbaa !134
  %17 = load float, ptr %12, align 4, !tbaa !159
  %18 = tail call noundef i32 @_ZN35btSequentialImpulseConstraintSolver19getOrInitSolverBodyER17btCollisionObjectf(ptr noundef nonnull align 8 dereferenceable(408) %0, ptr noundef nonnull align 8 dereferenceable(372) %16, float noundef %17)
  %19 = load ptr, ptr %15, align 8, !tbaa !134
  %20 = getelementptr inbounds nuw i8, ptr %19, i64 272
  %21 = load i32, ptr %20, align 8, !tbaa !160
  %22 = and i32 %21, 2
  %.not.i = icmp eq i32 %22, 0
  %.not25 = icmp eq ptr %19, null
  %.not = or i1 %.not25, %.not.i
  br i1 %.not, label %63, label %23

23:                                               ; preds = %14
  %24 = getelementptr inbounds nuw i8, ptr %19, i64 452
  %25 = load float, ptr %24, align 4, !tbaa !161
  %26 = fcmp une float %25, 0.000000e+00
  br i1 %26, label %27, label %63

27:                                               ; preds = %23
  %28 = load ptr, ptr %13, align 8, !tbaa !114
  %29 = sext i32 %18 to i64
  %30 = getelementptr inbounds %struct.btSolverBody, ptr %28, i64 %29
  %31 = getelementptr inbounds nuw i8, ptr %19, i64 420
  %32 = getelementptr inbounds nuw i8, ptr %30, i64 64
  %33 = load float, ptr %31, align 4, !tbaa !45
  %34 = load float, ptr %32, align 4, !tbaa !45
  %35 = fsub float %33, %34
  %36 = getelementptr inbounds nuw i8, ptr %19, i64 424
  %37 = load float, ptr %36, align 4, !tbaa !45
  %38 = getelementptr inbounds nuw i8, ptr %30, i64 68
  %39 = load float, ptr %38, align 4, !tbaa !45
  %40 = fsub float %37, %39
  %41 = getelementptr inbounds nuw i8, ptr %19, i64 428
  %42 = load float, ptr %41, align 4, !tbaa !45
  %43 = getelementptr inbounds nuw i8, ptr %30, i64 72
  %44 = load float, ptr %43, align 4, !tbaa !45
  %45 = fsub float %42, %44
  %.sroa.0.0.vec.insert.i = insertelement <2 x float> poison, float %35, i64 0
  %.sroa.0.4.vec.insert.i = insertelement <2 x float> %.sroa.0.0.vec.insert.i, float %40, i64 1
  %.sroa.3.12.vec.insert.i = insertelement <2 x float> <float poison, float 0.000000e+00>, float %45, i64 0
  %46 = getelementptr inbounds nuw i8, ptr %30, i64 176
  store <2 x float> %.sroa.0.4.vec.insert.i, ptr %46, align 8
  %.sroa.42.0..sroa_idx = getelementptr inbounds nuw i8, ptr %30, i64 184
  store <2 x float> %.sroa.3.12.vec.insert.i, ptr %.sroa.42.0..sroa_idx, align 8, !tbaa !41
  %47 = getelementptr inbounds nuw i8, ptr %19, i64 436
  %48 = getelementptr inbounds nuw i8, ptr %30, i64 80
  %49 = load float, ptr %47, align 4, !tbaa !45
  %50 = load float, ptr %48, align 4, !tbaa !45
  %51 = fsub float %49, %50
  %52 = getelementptr inbounds nuw i8, ptr %19, i64 440
  %53 = load float, ptr %52, align 4, !tbaa !45
  %54 = getelementptr inbounds nuw i8, ptr %30, i64 84
  %55 = load float, ptr %54, align 4, !tbaa !45
  %56 = fsub float %53, %55
  %57 = getelementptr inbounds nuw i8, ptr %19, i64 444
  %58 = load float, ptr %57, align 4, !tbaa !45
  %59 = getelementptr inbounds nuw i8, ptr %30, i64 88
  %60 = load float, ptr %59, align 4, !tbaa !45
  %61 = fsub float %58, %60
  %.sroa.0.0.vec.insert.i20 = insertelement <2 x float> poison, float %51, i64 0
  %.sroa.0.4.vec.insert.i21 = insertelement <2 x float> %.sroa.0.0.vec.insert.i20, float %56, i64 1
  %.sroa.3.12.vec.insert.i22 = insertelement <2 x float> <float poison, float 0.000000e+00>, float %61, i64 0
  %62 = getelementptr inbounds nuw i8, ptr %30, i64 192
  store <2 x float> %.sroa.0.4.vec.insert.i21, ptr %62, align 8
  %.sroa.4.0..sroa_idx = getelementptr inbounds nuw i8, ptr %30, i64 200
  store <2 x float> %.sroa.3.12.vec.insert.i22, ptr %.sroa.4.0..sroa_idx, align 8, !tbaa !41
  br label %63

63:                                               ; preds = %27, %23, %14
  %indvars.iv.next = add nuw nsw i64 %indvars.iv, 1
  %exitcond.not = icmp eq i64 %indvars.iv.next, %wide.trip.count
  br i1 %exitcond.not, label %.loopexit, label %14, !llvm.loop !168

.loopexit:                                        ; preds = %63, %4
  ret void
}